; Function Attrs: nofree norecurse nosync nounwind ssp memory(readwrite, inaccessiblemem: none) uwtable
define internal void @_ZN6open3d1t9pipelines6kernel8odometry33ComputeOdometryResultIntensityCPUERKNS_4core6TensorES7_S7_S7_S7_S7_S7_S7_S7_RS5_RfRiff.omp_outlined.omp.reduction.reduction_func(ptr noundef readonly captures(none) %0, ptr noundef readonly captures(none) %1) #8 {
  %3 = load ptr, ptr %1, align 8
  %4 = load ptr, ptr %0, align 8
  %5 = getelementptr i8, ptr %4, i64 116
  br label %6

6:                                                ; preds = %2, %6
  %7 = phi ptr [ %3, %2 ], [ %13, %6 ]
  %8 = phi ptr [ %4, %2 ], [ %12, %6 ]
  %9 = load float, ptr %8, align 4, !tbaa !4
  %10 = load float, ptr %7, align 4, !tbaa !4
  %11 = fadd float %9, %10
  store float %11, ptr %8, align 4, !tbaa !4
  %12 = getelementptr i8, ptr %8, i64 4
  %13 = getelementptr i8, ptr %7, i64 4
  %14 = icmp eq ptr %12, %5
  br i1 %14, label %15, label %6

15:                                               ; preds = %6
  ret void
}